; Function Attrs: null_pointer_is_valid sspstrong uwtable
define internal i32 @dissect_block_prev_node(ptr noundef %0, ptr noundef %1, ptr noundef %2, ptr readnone captures(none) %3) #2 {
  %5 = alloca i32, align 4
  call void @llvm.lifetime.start.p0(i64 4, ptr nonnull %5) #19
  store i32 0, ptr %5, align 4
  %6 = load i32, ptr @hf_previous_node_nodeid, align 4
  %7 = load i32, ptr @hf_previous_node_uri, align 4
  %8 = call ptr @proto_tree_add_cbor_eid(ptr noundef %2, i32 noundef %6, i32 noundef %7, ptr noundef %1, ptr noundef %0, ptr noundef nonnull %5, ptr noundef null)
  %9 = load i32, ptr %5, align 4
  call void @llvm.lifetime.end.p0(i64 4, ptr nonnull %5) #19
  ret i32 %9
}